target datalayout = "e-m:e-p270:32:32-p271:32:32-p272:64:64-i64:64-i128:128-f80:128-n8:16:32:64-S128"
target triple = "x86_64-pc-linux-gnu"

@_ZN12G1HeapRegion17LogOfHRGrainBytesE = hidden global i32 0, align 4
@_ZN12G1HeapRegion17LogCardsPerRegionE = hidden global i32 0, align 4
@_ZN12G1HeapRegion10GrainBytesE = hidden global i64 0, align 8
@_ZN12G1HeapRegion10GrainWordsE = hidden global i64 0, align 8
@_ZN12G1HeapRegion14CardsPerRegionE = hidden global i64 0, align 8
@G1HeapRegionSize = external global i64, align 8
@g_assert_poison = external global ptr, align 8
@.str = private unnamed_addr constant [41 x i8] c"src/hotspot/share/gc/g1/g1HeapRegion.cpp\00", align 1
@.str.4 = private unnamed_addr constant [41 x i8] c"guarantee(LogOfHRGrainBytes == 0) failed\00", align 1
@.str.5 = private unnamed_addr constant [27 x i8] c"we should only set it once\00", align 1
@.str.6 = private unnamed_addr constant [34 x i8] c"guarantee(GrainBytes == 0) failed\00", align 1
@.str.7 = private unnamed_addr constant [34 x i8] c"guarantee(GrainWords == 0) failed\00", align 1
@.str.8 = private unnamed_addr constant [38 x i8] c"guarantee(CardsPerRegion == 0) failed\00", align 1
@_ZN9CardTable11_card_shiftE = external global i32, align 4

; Function Attrs: mustprogress nounwind uwtable
define linkonce_odr hidden noundef i32 @_ZN21CountLeadingZerosImplImLm8EE4doitEm(i64 noundef %0) #1 comdat align 2 {
  %2 = alloca i64, align 8
  store i64 %0, ptr %2, align 8
  %3 = load i64, ptr %2, align 8
  %4 = call i64 @llvm.ctlz.i64(i64 %3, i1 true)
  %5 = trunc i64 %4 to i32
  ret i32 %5
}

; Function Attrs: mustprogress nounwind uwtable
define linkonce_odr hidden noundef i32 @_Z23count_trailing_zeros_64m(i64 noundef %0) #1 comdat {
  %2 = alloca i64, align 8
  store i64 %0, ptr %2, align 8
  %3 = load i64, ptr %2, align 8
  %4 = call i64 @llvm.cttz.i64(i64 %3, i1 true)
  %5 = trunc i64 %4 to i32
  ret i32 %5
}

; Function Attrs: mustprogress nounwind uwtable
define linkonce_odr hidden noundef i32 @_Z19count_leading_zerosImEjT_(i64 noundef %0) #1 comdat {
  %2 = alloca i64, align 8
  store i64 %0, ptr %2, align 8
  %3 = load i64, ptr %2, align 8
  %4 = call noundef i32 @_ZN21CountLeadingZerosImplImLm8EE4doitEm(i64 noundef %3)
  ret i32 %4
}

; Function Attrs: mustprogress nounwind uwtable
define linkonce_odr hidden noundef i32 @_ZN13JVMFlagAccess3setImLi6EEEN7JVMFlag5ErrorE12JVMFlagsEnumT_13JVMFlagOrigin(i32 noundef %0, i64 noundef %1, i32 noundef %2) #1 comdat align 2 {
  %4 = alloca i32, align 4
  %5 = alloca i64, align 8
  %6 = alloca i32, align 4
  store i32 %0, ptr %4, align 4
  store i64 %1, ptr %5, align 8
  store i32 %2, ptr %6, align 4
  %7 = load i32, ptr %4, align 4
  %8 = load i32, ptr %6, align 4
  %9 = call noundef i32 @_ZN13JVMFlagAccess13set_or_assertE12JVMFlagsEnumiPv13JVMFlagOrigin(i32 noundef %7, i32 noundef 6, ptr noundef %5, i32 noundef %8)
  ret i32 %9
}

; Function Attrs: mustprogress nounwind uwtable
define linkonce_odr hidden noundef i32 @_Z20count_trailing_zerosImTnNSt9enable_ifIXcvbsr3std11is_integralIT_EE5valueEiE4typeELi0ETnNS0_IXcvblestS1_Lm8EEiE4typeELi0EEjS1_(i64 noundef %0) #1 comdat {
  %2 = alloca i64, align 8
  store i64 %0, ptr %2, align 8
  %3 = load i64, ptr %2, align 8
  %4 = call noundef i32 @_Z23count_trailing_zeros_64m(i64 noundef %3)
  ret i32 %4
}

; Function Attrs: mustprogress nounwind uwtable
define linkonce_odr hidden noundef i32 @_Z5log2iImTnNSt9enable_ifIXcvbsr3std11is_integralIT_EE5valueEiE4typeELi0EEiS1_(i64 noundef %0) #1 comdat {
  %2 = alloca i64, align 8
  %3 = alloca i32, align 4
  store i64 %0, ptr %2, align 8
  store i32 64, ptr %3, align 4
  %4 = load i64, ptr %2, align 8
  %5 = call noundef i32 @_Z19count_leading_zerosImEjT_(i64 noundef %4)
  %6 = sub i32 64, %5
  %7 = sub i32 %6, 1
  ret i32 %7
}

; Function Attrs: mustprogress nounwind uwtable
define linkonce_odr hidden noundef zeroext i1 @_Z13is_power_of_2ImTnNSt9enable_ifIXcvbsr3std11is_integralIT_EE5valueEiE4typeELi0EEbS1_(i64 noundef %0) #1 comdat {
  %2 = alloca i64, align 8
  store i64 %0, ptr %2, align 8
  %3 = load i64, ptr %2, align 8
  %4 = icmp ugt i64 %3, 0
  br i1 %4, label %5, label %11

5:                                                ; preds = %1
  %6 = load i64, ptr %2, align 8
  %7 = load i64, ptr %2, align 8
  %8 = sub i64 %7, 1
  %9 = and i64 %6, %8
  %10 = icmp eq i64 %9, 0
  br label %11

11:                                               ; preds = %5, %1
  %12 = phi i1 [ false, %1 ], [ %10, %5 ]
  ret i1 %12
}

; Function Attrs: mustprogress nounwind uwtable
define linkonce_odr hidden noundef i64 @_Z4MIN2ImET_S0_S0_(i64 noundef %0, i64 noundef %1) #1 comdat {
  %3 = alloca i64, align 8
  %4 = alloca i64, align 8
  store i64 %0, ptr %3, align 8
  store i64 %1, ptr %4, align 8
  %5 = load i64, ptr %3, align 8
  %6 = load i64, ptr %4, align 8
  %7 = icmp ult i64 %5, %6
  br i1 %7, label %8, label %10

8:                                                ; preds = %2
  %9 = load i64, ptr %3, align 8
  br label %12

10:                                               ; preds = %2
  %11 = load i64, ptr %4, align 8
  br label %12

12:                                               ; preds = %10, %8
  %13 = phi i64 [ %9, %8 ], [ %11, %10 ]
  ret i64 %13
}

; Function Attrs: mustprogress nounwind uwtable
define linkonce_odr hidden noundef i64 @_Z4MAX2ImET_S0_S0_(i64 noundef %0, i64 noundef %1) #1 comdat {
  %3 = alloca i64, align 8
  %4 = alloca i64, align 8
  store i64 %0, ptr %3, align 8
  store i64 %1, ptr %4, align 8
  %5 = load i64, ptr %3, align 8
  %6 = load i64, ptr %4, align 8
  %7 = icmp ugt i64 %5, %6
  br i1 %7, label %8, label %10

8:                                                ; preds = %2
  %9 = load i64, ptr %3, align 8
  br label %12

10:                                               ; preds = %2
  %11 = load i64, ptr %4, align 8
  br label %12

12:                                               ; preds = %10, %8
  %13 = phi i64 [ %9, %8 ], [ %11, %10 ]
  ret i64 %13
}

; Function Attrs: mustprogress nounwind uwtable
define linkonce_odr hidden noundef i32 @_Z25Flag_G1HeapRegionSize_setm13JVMFlagOrigin(i64 noundef %0, i32 noundef %1) #1 comdat {
  %3 = alloca i64, align 8
  %4 = alloca i32, align 4
  store i64 %0, ptr %3, align 8
  store i32 %1, ptr %4, align 4
  %5 = load i64, ptr %3, align 8
  %6 = load i32, ptr %4, align 4
  %7 = call noundef i32 @_ZN13JVMFlagAccess3setImLi6EEEN7JVMFlag5ErrorE12JVMFlagsEnumT_13JVMFlagOrigin(i32 noundef 973, i64 noundef %5, i32 noundef %6)
  ret i32 %7
}

; Function Attrs: mustprogress nounwind uwtable
define linkonce_odr hidden noundef i32 @_ZN9CardTable10card_shiftEv() #1 comdat align 2 {
  %1 = load i32, ptr @_ZN9CardTable11_card_shiftE, align 4
  ret i32 %1
}

; Function Attrs: mustprogress nounwind uwtable
define linkonce_odr hidden noundef i32 @_Z11log2i_exactImTnNSt9enable_ifIXcvbsr3std11is_integralIT_EE5valueEiE4typeELi0EEiS1_(i64 noundef %0) #1 comdat {
  %2 = alloca i64, align 8
  store i64 %0, ptr %2, align 8
  %3 = load i64, ptr %2, align 8
  %4 = call noundef i32 @_Z20count_trailing_zerosImTnNSt9enable_ifIXcvbsr3std11is_integralIT_EE5valueEiE4typeELi0ETnNS0_IXcvblestS1_Lm8EEiE4typeELi0EEjS1_(i64 noundef %3)
  ret i32 %4
}

; Function Attrs: mustprogress nounwind uwtable
define linkonce_odr hidden noundef i64 @_ZN18G1HeapRegionBounds8max_sizeEv() #1 comdat align 2 {
  ret i64 536870912
}

; Function Attrs: mustprogress nounwind uwtable
define linkonce_odr hidden noundef i64 @_Z19round_up_power_of_2ImTnNSt9enable_ifIXcvbsr3std11is_integralIT_EE5valueEiE4typeELi0EES1_S1_(i64 noundef %0) #1 comdat {
  %2 = alloca i64, align 8
  %3 = alloca i64, align 8
  store i64 %0, ptr %3, align 8
  %4 = load i64, ptr %3, align 8
  %5 = call noundef zeroext i1 @_Z13is_power_of_2ImTnNSt9enable_ifIXcvbsr3std11is_integralIT_EE5valueEiE4typeELi0EEbS1_(i64 noundef %4)
  br i1 %5, label %6, label %8

6:                                                ; preds = %1
  %7 = load i64, ptr %3, align 8
  store i64 %7, ptr %2, align 8
  br label %14

8:                                                ; preds = %1
  %9 = load i64, ptr %3, align 8
  %10 = call noundef i32 @_Z5log2iImTnNSt9enable_ifIXcvbsr3std11is_integralIT_EE5valueEiE4typeELi0EEiS1_(i64 noundef %9)
  %11 = add nsw i32 %10, 1
  %12 = zext i32 %11 to i64
  %13 = shl i64 1, %12
  store i64 %13, ptr %2, align 8
  br label %14

14:                                               ; preds = %8, %6
  %15 = load i64, ptr %2, align 8
  ret i64 %15
}

; Function Attrs: mustprogress nounwind uwtable
define linkonce_odr hidden noundef i64 @_Z5clampImET_S0_S0_S0_(i64 noundef %0, i64 noundef %1, i64 noundef %2) #1 comdat {
  %4 = alloca i64, align 8
  %5 = alloca i64, align 8
  %6 = alloca i64, align 8
  store i64 %0, ptr %4, align 8
  store i64 %1, ptr %5, align 8
  store i64 %2, ptr %6, align 8
  %7 = load i64, ptr %4, align 8
  %8 = load i64, ptr %5, align 8
  %9 = call noundef i64 @_Z4MAX2ImET_S0_S0_(i64 noundef %7, i64 noundef %8)
  %10 = load i64, ptr %6, align 8
  %11 = call noundef i64 @_Z4MIN2ImET_S0_S0_(i64 noundef %9, i64 noundef %10)
  ret i64 %11
}

; Function Attrs: mustprogress nounwind uwtable
define linkonce_odr hidden noundef i64 @_ZN18G1HeapRegionBounds19max_ergonomics_sizeEv() #1 comdat align 2 {
  ret i64 33554432
}

; Function Attrs: mustprogress nounwind uwtable
define linkonce_odr hidden noundef i64 @_ZN18G1HeapRegionBounds8min_sizeEv() #1 comdat align 2 {
  ret i64 1048576
}

; Function Attrs: mustprogress nounwind uwtable
define linkonce_odr hidden noundef i64 @_ZN18G1HeapRegionBounds13target_numberEv() #1 comdat align 2 {
  ret i64 2048
}

; Function Attrs: mustprogress nounwind uwtable
define hidden void @_ZN12G1HeapRegion22setup_heap_region_sizeEm(i64 noundef %0) #1 align 2 {
  %2 = alloca i64, align 8
  %3 = alloca i64, align 8
  store i64 %0, ptr %2, align 8
  %4 = load i64, ptr @G1HeapRegionSize, align 8
  store i64 %4, ptr %3, align 8
  %5 = load i64, ptr %3, align 8
  %6 = icmp eq i64 %5, 0
  br i1 %6, label %7, label %14

7:                                                ; preds = %1
  %8 = load i64, ptr %2, align 8
  %9 = call noundef i64 @_ZN18G1HeapRegionBounds13target_numberEv()
  %10 = udiv i64 %8, %9
  %11 = call noundef i64 @_ZN18G1HeapRegionBounds8min_sizeEv()
  %12 = call noundef i64 @_ZN18G1HeapRegionBounds19max_ergonomics_sizeEv()
  %13 = call noundef i64 @_Z5clampImET_S0_S0_S0_(i64 noundef %10, i64 noundef %11, i64 noundef %12)
  store i64 %13, ptr %3, align 8
  br label %14

14:                                               ; preds = %7, %1
  %15 = load i64, ptr %3, align 8
  %16 = call noundef i64 @_Z19round_up_power_of_2ImTnNSt9enable_ifIXcvbsr3std11is_integralIT_EE5valueEiE4typeELi0EES1_S1_(i64 noundef %15)
  store i64 %16, ptr %3, align 8
  %17 = load i64, ptr %3, align 8
  %18 = call noundef i64 @_ZN18G1HeapRegionBounds8min_sizeEv()
  %19 = call noundef i64 @_ZN18G1HeapRegionBounds8max_sizeEv()
  %20 = call noundef i64 @_Z5clampImET_S0_S0_S0_(i64 noundef %17, i64 noundef %18, i64 noundef %19)
  store i64 %20, ptr %3, align 8
  br label %21

21:                                               ; preds = %14
  %22 = load i32, ptr @_ZN12G1HeapRegion17LogOfHRGrainBytesE, align 4
  %23 = icmp eq i32 %22, 0
  br i1 %23, label %26, label %24

24:                                               ; preds = %21
  %25 = load ptr, ptr @g_assert_poison, align 8
  store i8 88, ptr %25, align 1
  call void (ptr, i32, ptr, ptr, ...) @_Z15report_vm_errorPKciS0_S0_z(ptr noundef @.str, i32 noundef 82, ptr noundef @.str.4, ptr noundef @.str.5) #10
  unreachable

26:                                               ; preds = %21
  br label %27

27:                                               ; preds = %26
  %28 = load i64, ptr %3, align 8
  %29 = call noundef i32 @_Z11log2i_exactImTnNSt9enable_ifIXcvbsr3std11is_integralIT_EE5valueEiE4typeELi0EEiS1_(i64 noundef %28)
  store i32 %29, ptr @_ZN12G1HeapRegion17LogOfHRGrainBytesE, align 4
  br label %30

30:                                               ; preds = %27
  %31 = load i64, ptr @_ZN12G1HeapRegion10GrainBytesE, align 8
  %32 = icmp eq i64 %31, 0
  br i1 %32, label %35, label %33

33:                                               ; preds = %30
  %34 = load ptr, ptr @g_assert_poison, align 8
  store i8 88, ptr %34, align 1
  call void (ptr, i32, ptr, ptr, ...) @_Z15report_vm_errorPKciS0_S0_z(ptr noundef @.str, i32 noundef 85, ptr noundef @.str.6, ptr noundef @.str.5) #10
  unreachable

35:                                               ; preds = %30
  br label %36

36:                                               ; preds = %35
  %37 = load i64, ptr %3, align 8
  store i64 %37, ptr @_ZN12G1HeapRegion10GrainBytesE, align 8
  br label %38

38:                                               ; preds = %36
  %39 = load i64, ptr @_ZN12G1HeapRegion10GrainWordsE, align 8
  %40 = icmp eq i64 %39, 0
  br i1 %40, label %43, label %41

41:                                               ; preds = %38
  %42 = load ptr, ptr @g_assert_poison, align 8
  store i8 88, ptr %42, align 1
  call void (ptr, i32, ptr, ptr, ...) @_Z15report_vm_errorPKciS0_S0_z(ptr noundef @.str, i32 noundef 88, ptr noundef @.str.7, ptr noundef @.str.5) #10
  unreachable

43:                                               ; preds = %38
  br label %44

44:                                               ; preds = %43
  %45 = load i64, ptr @_ZN12G1HeapRegion10GrainBytesE, align 8
  %46 = lshr i64 %45, 3
  store i64 %46, ptr @_ZN12G1HeapRegion10GrainWordsE, align 8
  br label %47

47:                                               ; preds = %44
  %48 = load i64, ptr @_ZN12G1HeapRegion14CardsPerRegionE, align 8
  %49 = icmp eq i64 %48, 0
  br i1 %49, label %52, label %50

50:                                               ; preds = %47
  %51 = load ptr, ptr @g_assert_poison, align 8
  store i8 88, ptr %51, align 1
  call void (ptr, i32, ptr, ptr, ...) @_Z15report_vm_errorPKciS0_S0_z(ptr noundef @.str, i32 noundef 91, ptr noundef @.str.8, ptr noundef @.str.5) #10
  unreachable

52:                                               ; preds = %47
  br label %53

53:                                               ; preds = %52
  %54 = load i64, ptr @_ZN12G1HeapRegion10GrainBytesE, align 8
  %55 = call noundef i32 @_ZN9CardTable10card_shiftEv()
  %56 = zext i32 %55 to i64
  %57 = lshr i64 %54, %56
  store i64 %57, ptr @_ZN12G1HeapRegion14CardsPerRegionE, align 8
  %58 = load i64, ptr @_ZN12G1HeapRegion14CardsPerRegionE, align 8
  %59 = call noundef i32 @_Z11log2i_exactImTnNSt9enable_ifIXcvbsr3std11is_integralIT_EE5valueEiE4typeELi0EEiS1_(i64 noundef %58)
  store i32 %59, ptr @_ZN12G1HeapRegion17LogCardsPerRegionE, align 4
  %60 = load i64, ptr @G1HeapRegionSize, align 8
  %61 = load i64, ptr @_ZN12G1HeapRegion10GrainBytesE, align 8
  %62 = icmp ne i64 %60, %61
  br i1 %62, label %63, label %66

63:                                               ; preds = %53
  %64 = load i64, ptr @_ZN12G1HeapRegion10GrainBytesE, align 8
  %65 = call noundef i32 @_Z25Flag_G1HeapRegionSize_setm13JVMFlagOrigin(i64 noundef %64, i32 noundef 5)
  br label %66

66:                                               ; preds = %63, %53
  ret void
}