; Function Attrs: mustprogress nounwind uwtable
define hidden void @_ZN12G1HeapRegion22setup_heap_region_sizeEm(i64 noundef %0) local_unnamed_addr #1 align 2 {
  %2 = alloca i64, align 8
  %3 = load i64, ptr @G1HeapRegionSize, align 8
  %4 = icmp eq i64 %3, 0
  br i1 %4, label %5, label %9

5:                                                ; preds = %1
  %6 = lshr i64 %0, 11
  %7 = tail call noundef i64 @llvm.umax.i64(i64 %6, i64 1048576)
  %8 = tail call noundef i64 @llvm.umin.i64(i64 %7, i64 33554432)
  br label %9

9:                                                ; preds = %5, %1
  %.0 = phi i64 [ %8, %5 ], [ %3, %1 ]
  %10 = tail call range(i64 0, 65) i64 @llvm.ctpop.i64(i64 %.0)
  %or.cond.i = icmp eq i64 %10, 1
  %11 = tail call range(i64 0, 65) i64 @llvm.ctlz.i64(i64 %.0, i1 true)
  %12 = sub nuw nsw i64 64, %11
  %13 = shl nuw i64 1, %12
  %.0.i = select i1 %or.cond.i, i64 %.0, i64 %13
  %14 = tail call noundef i64 @llvm.umax.i64(i64 %.0.i, i64 1048576)
  %15 = tail call noundef i64 @llvm.umin.i64(i64 %14, i64 536870912)
  %16 = load i32, ptr @_ZN12G1HeapRegion17LogOfHRGrainBytesE, align 4
  %17 = icmp eq i32 %16, 0
  br i1 %17, label %20, label %18

18:                                               ; preds = %9
  %19 = load ptr, ptr @g_assert_poison, align 8
  store i8 88, ptr %19, align 1
  tail call void (ptr, i32, ptr, ptr, ...) @_Z15report_vm_errorPKciS0_S0_z(ptr noundef nonnull @.str, i32 noundef 82, ptr noundef nonnull @.str.4, ptr noundef nonnull @.str.5) #15
  unreachable

20:                                               ; preds = %9
  %21 = tail call range(i64 0, 65) i64 @llvm.cttz.i64(i64 %15, i1 true)
  %22 = trunc nuw nsw i64 %21 to i32
  store i32 %22, ptr @_ZN12G1HeapRegion17LogOfHRGrainBytesE, align 4
  %23 = load i64, ptr @_ZN12G1HeapRegion10GrainBytesE, align 8
  %24 = icmp eq i64 %23, 0
  br i1 %24, label %27, label %25

25:                                               ; preds = %20
  %26 = load ptr, ptr @g_assert_poison, align 8
  store i8 88, ptr %26, align 1
  tail call void (ptr, i32, ptr, ptr, ...) @_Z15report_vm_errorPKciS0_S0_z(ptr noundef nonnull @.str, i32 noundef 85, ptr noundef nonnull @.str.6, ptr noundef nonnull @.str.5) #15
  unreachable

27:                                               ; preds = %20
  store i64 %15, ptr @_ZN12G1HeapRegion10GrainBytesE, align 8
  %28 = load i64, ptr @_ZN12G1HeapRegion10GrainWordsE, align 8
  %29 = icmp eq i64 %28, 0
  br i1 %29, label %32, label %30

30:                                               ; preds = %27
  %31 = load ptr, ptr @g_assert_poison, align 8
  store i8 88, ptr %31, align 1
  tail call void (ptr, i32, ptr, ptr, ...) @_Z15report_vm_errorPKciS0_S0_z(ptr noundef nonnull @.str, i32 noundef 88, ptr noundef nonnull @.str.7, ptr noundef nonnull @.str.5) #15
  unreachable

32:                                               ; preds = %27
  %33 = lshr i64 %15, 3
  store i64 %33, ptr @_ZN12G1HeapRegion10GrainWordsE, align 8
  %34 = load i64, ptr @_ZN12G1HeapRegion14CardsPerRegionE, align 8
  %35 = icmp eq i64 %34, 0
  br i1 %35, label %38, label %36

36:                                               ; preds = %32
  %37 = load ptr, ptr @g_assert_poison, align 8
  store i8 88, ptr %37, align 1
  tail call void (ptr, i32, ptr, ptr, ...) @_Z15report_vm_errorPKciS0_S0_z(ptr noundef nonnull @.str, i32 noundef 91, ptr noundef nonnull @.str.8, ptr noundef nonnull @.str.5) #15
  unreachable

38:                                               ; preds = %32
  %39 = load i32, ptr @_ZN9CardTable11_card_shiftE, align 4
  %40 = zext nneg i32 %39 to i64
  %41 = lshr i64 %15, %40
  store i64 %41, ptr @_ZN12G1HeapRegion14CardsPerRegionE, align 8
  %42 = tail call range(i64 0, 65) i64 @llvm.cttz.i64(i64 %41, i1 true)
  %43 = trunc nuw nsw i64 %42 to i32
  store i32 %43, ptr @_ZN12G1HeapRegion17LogCardsPerRegionE, align 4
  %.not = icmp eq i64 %3, %15
  br i1 %.not, label %46, label %44

44:                                               ; preds = %38
  call void @llvm.lifetime.start.p0(i64 8, ptr nonnull %2)
  store i64 %15, ptr %2, align 8
  %45 = call noundef i32 @_ZN13JVMFlagAccess13set_or_assertE12JVMFlagsEnumiPv13JVMFlagOrigin(i32 noundef 973, i32 noundef 6, ptr noundef nonnull %2, i32 noundef 5) #16
  call void @llvm.lifetime.end.p0(i64 8, ptr nonnull %2)
  br label %46

46:                                               ; preds = %44, %38
  ret void
}